target datalayout = "e-m:e-p270:32:32-p271:32:32-p272:64:64-i64:64-i128:128-f80:128-n8:16:32:64-S128"
target triple = "x86_64-pc-linux-gnu"

%struct.AVChannelLayout = type { i32, i32, %union.anon, ptr }
%union.anon = type { i64 }
%struct.AVCodecParameters = type { i32, i32, i32, ptr, i32, ptr, i32, i32, i64, i32, i32, i32, i32, i32, i32, %struct.AVRational, %struct.AVRational, i32, i32, i32, i32, i32, i32, i32, %struct.AVChannelLayout, i32, i32, i32, i32, i32, i32 }
%struct.AVRational = type { i32, i32 }
%struct.AVStream = type { ptr, i32, i32, ptr, ptr, %struct.AVRational, i64, i64, i64, i32, i32, %struct.AVRational, ptr, %struct.AVRational, %struct.AVPacket, i32, %struct.AVRational, i32 }
%struct.AVPacket = type { ptr, i64, i64, ptr, i32, i32, i32, ptr, i32, i64, i64, ptr, ptr, %struct.AVRational }

; Function Attrs: nounwind uwtable
define void @ff_parse_specific_params(ptr noundef %0, ptr noundef %1, ptr noundef %2, ptr noundef %3) #0 {
  %5 = alloca ptr, align 8
  %6 = alloca ptr, align 8
  %7 = alloca ptr, align 8
  %8 = alloca ptr, align 8
  %9 = alloca ptr, align 8
  %10 = alloca i32, align 4
  %11 = alloca i32, align 4
  store ptr %0, ptr %5, align 8, !tbaa !62
  store ptr %1, ptr %6, align 8, !tbaa !64
  store ptr %2, ptr %7, align 8, !tbaa !64
  store ptr %3, ptr %8, align 8, !tbaa !64
  call void @llvm.lifetime.start.p0(i64 8, ptr %9) #7
  %12 = load ptr, ptr %5, align 8, !tbaa !62
  %13 = getelementptr inbounds nuw %struct.AVStream, ptr %12, i32 0, i32 3
  %14 = load ptr, ptr %13, align 8, !tbaa !66
  store ptr %14, ptr %9, align 8, !tbaa !16
  call void @llvm.lifetime.start.p0(i64 4, ptr %10) #7
  call void @llvm.lifetime.start.p0(i64 4, ptr %11) #7
  %15 = load ptr, ptr %9, align 8, !tbaa !16
  %16 = call i32 @av_get_audio_frame_duration2(ptr noundef %15, i32 noundef 0)
  store i32 %16, ptr %11, align 4, !tbaa !18
  %17 = load i32, ptr %11, align 4, !tbaa !18
  %18 = icmp ne i32 %17, 0
  br i1 %18, label %23, label %19

19:                                               ; preds = %4
  %20 = load ptr, ptr %9, align 8, !tbaa !16
  %21 = getelementptr inbounds nuw %struct.AVCodecParameters, ptr %20, i32 0, i32 27
  %22 = load i32, ptr %21, align 8, !tbaa !70
  store i32 %22, ptr %11, align 4, !tbaa !18
  br label %23

23:                                               ; preds = %19, %4
  %24 = load ptr, ptr %9, align 8, !tbaa !16
  %25 = getelementptr inbounds nuw %struct.AVCodecParameters, ptr %24, i32 0, i32 26
  %26 = load i32, ptr %25, align 4, !tbaa !26
  %27 = load ptr, ptr %7, align 8, !tbaa !64
  store i32 %26, ptr %27, align 4, !tbaa !18
  %28 = load i32, ptr %11, align 4, !tbaa !18
  %29 = icmp ne i32 %28, 0
  br i1 %29, label %30, label %42

30:                                               ; preds = %23
  %31 = load ptr, ptr %9, align 8, !tbaa !16
  %32 = getelementptr inbounds nuw %struct.AVCodecParameters, ptr %31, i32 0, i32 25
  %33 = load i32, ptr %32, align 8, !tbaa !31
  %34 = icmp ne i32 %33, 0
  br i1 %34, label %35, label %42

35:                                               ; preds = %30
  %36 = load i32, ptr %11, align 4, !tbaa !18
  %37 = load ptr, ptr %8, align 8, !tbaa !64
  store i32 %36, ptr %37, align 4, !tbaa !18
  %38 = load ptr, ptr %9, align 8, !tbaa !16
  %39 = getelementptr inbounds nuw %struct.AVCodecParameters, ptr %38, i32 0, i32 25
  %40 = load i32, ptr %39, align 8, !tbaa !31
  %41 = load ptr, ptr %6, align 8, !tbaa !64
  store i32 %40, ptr %41, align 4, !tbaa !18
  br label %101

42:                                               ; preds = %30, %23
  %43 = load ptr, ptr %9, align 8, !tbaa !16
  %44 = getelementptr inbounds nuw %struct.AVCodecParameters, ptr %43, i32 0, i32 0
  %45 = load i32, ptr %44, align 8, !tbaa !71
  %46 = icmp eq i32 %45, 0
  br i1 %46, label %57, label %47

47:                                               ; preds = %42
  %48 = load ptr, ptr %9, align 8, !tbaa !16
  %49 = getelementptr inbounds nuw %struct.AVCodecParameters, ptr %48, i32 0, i32 0
  %50 = load i32, ptr %49, align 8, !tbaa !71
  %51 = icmp eq i32 %50, 2
  br i1 %51, label %57, label %52

52:                                               ; preds = %47
  %53 = load ptr, ptr %9, align 8, !tbaa !16
  %54 = getelementptr inbounds nuw %struct.AVCodecParameters, ptr %53, i32 0, i32 0
  %55 = load i32, ptr %54, align 8, !tbaa !71
  %56 = icmp eq i32 %55, 3
  br i1 %56, label %57, label %68

57:                                               ; preds = %52, %47, %42
  %58 = load ptr, ptr %5, align 8, !tbaa !62
  %59 = getelementptr inbounds nuw %struct.AVStream, ptr %58, i32 0, i32 5
  %60 = getelementptr inbounds nuw %struct.AVRational, ptr %59, i32 0, i32 0
  %61 = load i32, ptr %60, align 8, !tbaa !72
  %62 = load ptr, ptr %8, align 8, !tbaa !64
  store i32 %61, ptr %62, align 4, !tbaa !18
  %63 = load ptr, ptr %5, align 8, !tbaa !62
  %64 = getelementptr inbounds nuw %struct.AVStream, ptr %63, i32 0, i32 5
  %65 = getelementptr inbounds nuw %struct.AVRational, ptr %64, i32 0, i32 1
  %66 = load i32, ptr %65, align 4, !tbaa !73
  %67 = load ptr, ptr %6, align 8, !tbaa !64
  store i32 %66, ptr %67, align 4, !tbaa !18
  br label %100

68:                                               ; preds = %52
  %69 = load ptr, ptr %9, align 8, !tbaa !16
  %70 = getelementptr inbounds nuw %struct.AVCodecParameters, ptr %69, i32 0, i32 26
  %71 = load i32, ptr %70, align 4, !tbaa !26
  %72 = icmp ne i32 %71, 0
  br i1 %72, label %73, label %78

73:                                               ; preds = %68
  %74 = load ptr, ptr %9, align 8, !tbaa !16
  %75 = getelementptr inbounds nuw %struct.AVCodecParameters, ptr %74, i32 0, i32 26
  %76 = load i32, ptr %75, align 4, !tbaa !26
  %77 = mul nsw i32 %76, 8
  br label %79

78:                                               ; preds = %68
  br label %79

79:                                               ; preds = %78, %73
  %80 = phi i32 [ %77, %73 ], [ 8, %78 ]
  %81 = load ptr, ptr %8, align 8, !tbaa !64
  store i32 %80, ptr %81, align 4, !tbaa !18
  %82 = load ptr, ptr %9, align 8, !tbaa !16
  %83 = getelementptr inbounds nuw %struct.AVCodecParameters, ptr %82, i32 0, i32 8
  %84 = load i64, ptr %83, align 8, !tbaa !34
  %85 = icmp ne i64 %84, 0
  br i1 %85, label %86, label %90

86:                                               ; preds = %79
  %87 = load ptr, ptr %9, align 8, !tbaa !16
  %88 = getelementptr inbounds nuw %struct.AVCodecParameters, ptr %87, i32 0, i32 8
  %89 = load i64, ptr %88, align 8, !tbaa !34
  br label %96

90:                                               ; preds = %79
  %91 = load ptr, ptr %9, align 8, !tbaa !16
  %92 = getelementptr inbounds nuw %struct.AVCodecParameters, ptr %91, i32 0, i32 25
  %93 = load i32, ptr %92, align 8, !tbaa !31
  %94 = mul nsw i32 8, %93
  %95 = sext i32 %94 to i64
  br label %96

96:                                               ; preds = %90, %86
  %97 = phi i64 [ %89, %86 ], [ %95, %90 ]
  %98 = trunc i64 %97 to i32
  %99 = load ptr, ptr %6, align 8, !tbaa !64
  store i32 %98, ptr %99, align 4, !tbaa !18
  br label %100

100:                                              ; preds = %96, %57
  br label %101

101:                                              ; preds = %100, %35
  %102 = load ptr, ptr %8, align 8, !tbaa !64
  %103 = load i32, ptr %102, align 4, !tbaa !18
  %104 = sext i32 %103 to i64
  %105 = load ptr, ptr %6, align 8, !tbaa !64
  %106 = load i32, ptr %105, align 4, !tbaa !18
  %107 = sext i32 %106 to i64
  %108 = call i64 @av_gcd(i64 noundef %104, i64 noundef %107) #9
  %109 = trunc i64 %108 to i32
  store i32 %109, ptr %10, align 4, !tbaa !18
  %110 = load i32, ptr %10, align 4, !tbaa !18
  %111 = load ptr, ptr %8, align 8, !tbaa !64
  %112 = load i32, ptr %111, align 4, !tbaa !18
  %113 = sdiv i32 %112, %110
  store i32 %113, ptr %111, align 4, !tbaa !18
  %114 = load i32, ptr %10, align 4, !tbaa !18
  %115 = load ptr, ptr %6, align 8, !tbaa !64
  %116 = load i32, ptr %115, align 4, !tbaa !18
  %117 = sdiv i32 %116, %114
  store i32 %117, ptr %115, align 4, !tbaa !18
  call void @llvm.lifetime.end.p0(i64 4, ptr %11) #7
  call void @llvm.lifetime.end.p0(i64 4, ptr %10) #7
  call void @llvm.lifetime.end.p0(i64 8, ptr %9) #7
  ret void
}