; Function Attrs: nounwind uwtable
define void @ff_parse_specific_params(ptr noundef readonly captures(none) %0, ptr noundef captures(none) initializes((0, 4)) %1, ptr noundef writeonly captures(none) initializes((0, 4)) %2, ptr noundef captures(none) initializes((0, 4)) %3) local_unnamed_addr #0 {
  %5 = getelementptr inbounds nuw i8, ptr %0, i64 16
  %6 = load ptr, ptr %5, align 8, !tbaa !50
  %7 = tail call i32 @av_get_audio_frame_duration2(ptr noundef %6, i32 noundef 0) #8
  %.not = icmp eq i32 %7, 0
  br i1 %.not, label %10, label %.thread

.thread:                                          ; preds = %4
  %8 = getelementptr inbounds nuw i8, ptr %6, i64 156
  %9 = load i32, ptr %8, align 4, !tbaa !16
  store i32 %9, ptr %2, align 4, !tbaa !55
  br label %15

10:                                               ; preds = %4
  %11 = getelementptr inbounds nuw i8, ptr %6, i64 160
  %12 = load i32, ptr %11, align 8, !tbaa !56
  %13 = getelementptr inbounds nuw i8, ptr %6, i64 156
  %14 = load i32, ptr %13, align 4, !tbaa !16
  store i32 %14, ptr %2, align 4, !tbaa !55
  %.not35 = icmp eq i32 %12, 0
  br i1 %.not35, label %21, label %15

15:                                               ; preds = %.thread, %10
  %16 = phi i32 [ %9, %.thread ], [ %14, %10 ]
  %.041 = phi i32 [ %7, %.thread ], [ %12, %10 ]
  %17 = getelementptr inbounds nuw i8, ptr %6, i64 152
  %18 = load i32, ptr %17, align 8, !tbaa !22
  %.not36 = icmp eq i32 %18, 0
  br i1 %.not36, label %21, label %19

19:                                               ; preds = %15
  store i32 %.041, ptr %3, align 4, !tbaa !55
  %20 = load i32, ptr %17, align 8, !tbaa !22
  br label %39

21:                                               ; preds = %15, %10
  %22 = phi i32 [ %16, %15 ], [ %14, %10 ]
  %23 = load i32, ptr %6, align 8, !tbaa !57
  switch i32 %23, label %29 [
    i32 0, label %24
    i32 2, label %24
    i32 3, label %24
  ]

24:                                               ; preds = %21, %21, %21
  %25 = getelementptr inbounds nuw i8, ptr %0, i64 32
  %26 = load i32, ptr %25, align 8, !tbaa !58
  store i32 %26, ptr %3, align 4, !tbaa !55
  %27 = getelementptr inbounds nuw i8, ptr %0, i64 36
  %28 = load i32, ptr %27, align 4, !tbaa !59
  br label %39

29:                                               ; preds = %21
  %.not37 = icmp eq i32 %22, 0
  %30 = shl nsw i32 %22, 3
  %spec.select = select i1 %.not37, i32 8, i32 %30
  store i32 %spec.select, ptr %3, align 4, !tbaa !55
  %31 = getelementptr inbounds nuw i8, ptr %6, i64 48
  %32 = load i64, ptr %31, align 8, !tbaa !25
  %.not38 = icmp eq i64 %32, 0
  br i1 %.not38, label %35, label %33

33:                                               ; preds = %29
  %34 = trunc i64 %32 to i32
  br label %39

35:                                               ; preds = %29
  %36 = getelementptr inbounds nuw i8, ptr %6, i64 152
  %37 = load i32, ptr %36, align 8, !tbaa !22
  %38 = shl nsw i32 %37, 3
  br label %39

39:                                               ; preds = %33, %35, %24, %19
  %.sink = phi i32 [ %28, %24 ], [ %20, %19 ], [ %34, %33 ], [ %38, %35 ]
  store i32 %.sink, ptr %1, align 4, !tbaa !55
  %40 = load i32, ptr %3, align 4, !tbaa !55
  %41 = sext i32 %40 to i64
  %42 = sext i32 %.sink to i64
  %43 = tail call i64 @av_gcd(i64 noundef %41, i64 noundef %42) #10
  %44 = trunc i64 %43 to i32
  %45 = sdiv i32 %40, %44
  store i32 %45, ptr %3, align 4, !tbaa !55
  %46 = load i32, ptr %1, align 4, !tbaa !55
  %47 = sdiv i32 %46, %44
  store i32 %47, ptr %1, align 4, !tbaa !55
  ret void
}